target datalayout = "e-m:e-p270:32:32-p271:32:32-p272:64:64-i64:64-i128:128-f80:128-n8:16:32:64-S128"
target triple = "x86_64-pc-linux-gnu"

%struct._priv_exr_context_t = type { i8, i8, i8, i8, i8, i8, i8, i8, %struct.exr_attr_string_t, %struct.exr_attr_string_t, ptr, ptr, ptr, ptr, ptr, ptr, ptr, ptr, i32, i32, i32, i32, i32, float, ptr, ptr, ptr, i64, ptr, ptr, i64, i32, i32, i32, i32, %struct._priv_exr_part_t, ptr, ptr, %struct.exr_attribute_list, %union.pthread_mutex_t, i8, i8, [2 x i8], i32 }
%struct.exr_attr_string_t = type { i32, i32, ptr }
%struct._priv_exr_part_t = type { i32, i32, %struct.exr_attribute_list, ptr, ptr, ptr, ptr, ptr, ptr, ptr, ptr, ptr, ptr, ptr, ptr, ptr, ptr, %struct.exr_attr_box2i_t, %struct.exr_attr_box2i_t, i32, i32, i32, float, i32, i32, ptr, ptr, ptr, ptr, i64, i16, i16, i32, i64, i64 }
%struct.exr_attr_box2i_t = type { %struct.exr_attr_v2i_t, %struct.exr_attr_v2i_t }
%struct.exr_attr_v2i_t = type { i32, i32 }
%struct.exr_attribute_list = type { i32, i32, ptr, ptr }
%union.pthread_mutex_t = type { %struct.__pthread_mutex_s }
%struct.__pthread_mutex_s = type { i32, i32, i32, i32, i32, i16, i16, %struct.__pthread_internal_list }
%struct.__pthread_internal_list = type { ptr, ptr }

@.str = private unnamed_addr constant [29 x i8] c"Part index (%d) out of range\00", align 1

; Function Attrs: inlinehint nounwind uwtable
define internal void @internal_exr_unlock(ptr noundef %0) #2 {
  %2 = alloca ptr, align 8
  %3 = alloca ptr, align 8
  store ptr %0, ptr %2, align 8, !tbaa !3
  call void @llvm.lifetime.start.p0(i64 8, ptr %3) #6
  %4 = load ptr, ptr %2, align 8, !tbaa !3
  %5 = ptrtoint ptr %4 to i64
  %6 = inttoptr i64 %5 to ptr
  store ptr %6, ptr %3, align 8, !tbaa !3
  %7 = load ptr, ptr %3, align 8, !tbaa !3
  %8 = getelementptr inbounds nuw %struct._priv_exr_context_t, ptr %7, i32 0, i32 39
  %9 = call i32 @pthread_mutex_unlock(ptr noundef %8) #6
  call void @llvm.lifetime.end.p0(i64 8, ptr %3) #6
  ret void
}

; Function Attrs: inlinehint nounwind uwtable
define internal void @internal_exr_lock(ptr noundef %0) #2 {
  %2 = alloca ptr, align 8
  %3 = alloca ptr, align 8
  store ptr %0, ptr %2, align 8, !tbaa !3
  call void @llvm.lifetime.start.p0(i64 8, ptr %3) #6
  %4 = load ptr, ptr %2, align 8, !tbaa !3
  %5 = ptrtoint ptr %4 to i64
  %6 = inttoptr i64 %5 to ptr
  store ptr %6, ptr %3, align 8, !tbaa !3
  %7 = load ptr, ptr %3, align 8, !tbaa !3
  %8 = getelementptr inbounds nuw %struct._priv_exr_context_t, ptr %7, i32 0, i32 39
  %9 = call i32 @pthread_mutex_lock(ptr noundef %8) #6
  call void @llvm.lifetime.end.p0(i64 8, ptr %3) #6
  ret void
}

; Function Attrs: nounwind uwtable
define i32 @exr_get_chunk_table(ptr noundef %0, i32 noundef %1, ptr noundef %2, ptr noundef %3) #0 {
  %5 = alloca i32, align 4
  %6 = alloca ptr, align 8
  %7 = alloca i32, align 4
  %8 = alloca ptr, align 8
  %9 = alloca ptr, align 8
  %10 = alloca i32, align 4
  %11 = alloca i32, align 4
  %12 = alloca i64, align 8
  %13 = alloca ptr, align 8
  store ptr %0, ptr %6, align 8, !tbaa !3
  store i32 %1, ptr %7, align 4, !tbaa !27
  store ptr %2, ptr %8, align 8, !tbaa !59
  store ptr %3, ptr %9, align 8, !tbaa !8
  call void @llvm.lifetime.start.p0(i64 4, ptr %10) #6
  %14 = load ptr, ptr %8, align 8, !tbaa !59
  %15 = icmp ne ptr %14, null
  br i1 %15, label %17, label %16

16:                                               ; preds = %4
  store i32 3, ptr %5, align 4
  store i32 1, ptr %11, align 4
  br label %82

17:                                               ; preds = %4
  %18 = load ptr, ptr %6, align 8, !tbaa !3
  %19 = load i32, ptr %7, align 4, !tbaa !27
  %20 = load ptr, ptr %9, align 8, !tbaa !8
  %21 = call i32 @exr_get_chunk_count(ptr noundef %18, i32 noundef %19, ptr noundef %20)
  store i32 %21, ptr %10, align 4, !tbaa !27
  %22 = load i32, ptr %10, align 4, !tbaa !27
  %23 = icmp eq i32 %22, 0
  br i1 %23, label %24, label %80

24:                                               ; preds = %17
  call void @llvm.lifetime.start.p0(i64 8, ptr %12) #6
  call void @llvm.lifetime.start.p0(i64 8, ptr %13) #6
  %25 = load ptr, ptr %6, align 8, !tbaa !3
  %26 = icmp ne ptr %25, null
  br i1 %26, label %28, label %27

27:                                               ; preds = %24
  store i32 2, ptr %5, align 4
  store i32 1, ptr %11, align 4
  br label %77

28:                                               ; preds = %24
  %29 = load ptr, ptr %6, align 8, !tbaa !3
  %30 = getelementptr inbounds nuw %struct._priv_exr_context_t, ptr %29, i32 0, i32 0
  %31 = load i8, ptr %30, align 8, !tbaa !25
  %32 = zext i8 %31 to i32
  %33 = icmp eq i32 %32, 1
  br i1 %33, label %34, label %36

34:                                               ; preds = %28
  %35 = load ptr, ptr %6, align 8, !tbaa !3
  call void @internal_exr_lock(ptr noundef %35)
  br label %36

36:                                               ; preds = %34, %28
  %37 = load i32, ptr %7, align 4, !tbaa !27
  %38 = icmp slt i32 %37, 0
  br i1 %38, label %45, label %39

39:                                               ; preds = %36
  %40 = load i32, ptr %7, align 4, !tbaa !27
  %41 = load ptr, ptr %6, align 8, !tbaa !3
  %42 = getelementptr inbounds nuw %struct._priv_exr_context_t, ptr %41, i32 0, i32 34
  %43 = load i32, ptr %42, align 4, !tbaa !26
  %44 = icmp sge i32 %40, %43
  br i1 %44, label %45, label %60

45:                                               ; preds = %39, %36
  %46 = load ptr, ptr %6, align 8, !tbaa !3
  %47 = getelementptr inbounds nuw %struct._priv_exr_context_t, ptr %46, i32 0, i32 0
  %48 = load i8, ptr %47, align 8, !tbaa !25
  %49 = zext i8 %48 to i32
  %50 = icmp eq i32 %49, 1
  br i1 %50, label %51, label %53

51:                                               ; preds = %45
  %52 = load ptr, ptr %6, align 8, !tbaa !3
  call void @internal_exr_unlock(ptr noundef %52)
  br label %53

53:                                               ; preds = %51, %45
  %54 = load ptr, ptr %6, align 8, !tbaa !3
  %55 = getelementptr inbounds nuw %struct._priv_exr_context_t, ptr %54, i32 0, i32 14
  %56 = load ptr, ptr %55, align 8, !tbaa !29
  %57 = load ptr, ptr %6, align 8, !tbaa !3
  %58 = load i32, ptr %7, align 4, !tbaa !27
  %59 = call i32 (ptr, i32, ptr, ...) %56(ptr noundef %57, i32 noundef 4, ptr noundef @.str, i32 noundef %58)
  store i32 %59, ptr %5, align 4
  store i32 1, ptr %11, align 4
  br label %77

60:                                               ; preds = %39
  %61 = load ptr, ptr %6, align 8, !tbaa !3
  %62 = getelementptr inbounds nuw %struct._priv_exr_context_t, ptr %61, i32 0, i32 37
  %63 = load ptr, ptr %62, align 8, !tbaa !30
  %64 = load i32, ptr %7, align 4, !tbaa !27
  %65 = sext i32 %64 to i64
  %66 = getelementptr inbounds ptr, ptr %63, i64 %65
  %67 = load ptr, ptr %66, align 8, !tbaa !31
  store ptr %67, ptr %13, align 8, !tbaa !31
  %68 = load ptr, ptr %6, align 8, !tbaa !3
  %69 = load ptr, ptr %13, align 8, !tbaa !31
  %70 = load ptr, ptr %8, align 8, !tbaa !59
  %71 = call i32 @extract_chunk_table(ptr noundef %68, ptr noundef %69, ptr noundef %70, ptr noundef %12)
  store i32 %71, ptr %10, align 4, !tbaa !27
  %72 = load i32, ptr %10, align 4, !tbaa !27
  %73 = icmp ne i32 %72, 0
  br i1 %73, label %74, label %76

74:                                               ; preds = %60
  %75 = load i32, ptr %10, align 4, !tbaa !27
  store i32 %75, ptr %5, align 4
  store i32 1, ptr %11, align 4
  br label %77

76:                                               ; preds = %60
  store i32 0, ptr %11, align 4
  br label %77

77:                                               ; preds = %76, %74, %53, %27
  call void @llvm.lifetime.end.p0(i64 8, ptr %13) #6
  call void @llvm.lifetime.end.p0(i64 8, ptr %12) #6
  %78 = load i32, ptr %11, align 4
  switch i32 %78, label %82 [
    i32 0, label %79
  ]

79:                                               ; preds = %77
  br label %80

80:                                               ; preds = %79, %17
  %81 = load i32, ptr %10, align 4, !tbaa !27
  store i32 %81, ptr %5, align 4
  store i32 1, ptr %11, align 4
  br label %82

82:                                               ; preds = %80, %77, %16
  call void @llvm.lifetime.end.p0(i64 4, ptr %10) #6
  %83 = load i32, ptr %5, align 4
  ret i32 %83
}