; Function Attrs: nounwind uwtable
define i32 @exr_get_chunk_table(ptr noundef %0, i32 noundef %1, ptr noundef %2, ptr noundef %3) local_unnamed_addr #0 {
  %5 = alloca i64, align 8
  %.not = icmp eq ptr %2, null
  br i1 %.not, label %38, label %6

6:                                                ; preds = %4
  %7 = tail call i32 @exr_get_chunk_count(ptr noundef %0, i32 noundef %1, ptr noundef %3)
  %8 = icmp eq i32 %7, 0
  br i1 %8, label %9, label %38

9:                                                ; preds = %6
  call void @llvm.lifetime.start.p0(i64 8, ptr nonnull %5) #6
  %.not35 = icmp eq ptr %0, null
  br i1 %.not35, label %.sink.split, label %10

10:                                               ; preds = %9
  %11 = load i8, ptr %0, align 8, !tbaa !22
  %12 = icmp eq i8 %11, 1
  br i1 %12, label %13, label %16

13:                                               ; preds = %10
  %14 = getelementptr inbounds nuw i8, ptr %0, i64 504
  %15 = tail call i32 @pthread_mutex_lock(ptr noundef nonnull %14) #6
  br label %16

16:                                               ; preds = %13, %10
  %17 = icmp slt i32 %1, 0
  br i1 %17, label %21, label %18

18:                                               ; preds = %16
  %19 = getelementptr inbounds nuw i8, ptr %0, i64 196
  %20 = load i32, ptr %19, align 4, !tbaa !23
  %.not36 = icmp slt i32 %1, %20
  br i1 %.not36, label %31, label %21

21:                                               ; preds = %18, %16
  %22 = load i8, ptr %0, align 8, !tbaa !22
  %23 = icmp eq i8 %22, 1
  br i1 %23, label %24, label %27

24:                                               ; preds = %21
  %25 = getelementptr inbounds nuw i8, ptr %0, i64 504
  %26 = tail call i32 @pthread_mutex_unlock(ptr noundef nonnull %25) #6
  br label %27

27:                                               ; preds = %24, %21
  %28 = getelementptr inbounds nuw i8, ptr %0, i64 72
  %29 = load ptr, ptr %28, align 8, !tbaa !25
  %30 = tail call i32 (ptr, i32, ptr, ...) %29(ptr noundef nonnull %0, i32 noundef 4, ptr noundef nonnull @.str, i32 noundef %1) #6
  br label %.sink.split

31:                                               ; preds = %18
  %32 = getelementptr inbounds nuw i8, ptr %0, i64 472
  %33 = load ptr, ptr %32, align 8, !tbaa !26
  %34 = zext nneg i32 %1 to i64
  %35 = getelementptr inbounds nuw ptr, ptr %33, i64 %34
  %36 = load ptr, ptr %35, align 8, !tbaa !27
  %37 = call i32 @extract_chunk_table(ptr noundef nonnull %0, ptr noundef %36, ptr noundef nonnull %2, ptr noundef nonnull %5) #6
  br label %.sink.split

.sink.split:                                      ; preds = %9, %27, %31
  %.0.ph = phi i32 [ %37, %31 ], [ 2, %9 ], [ %30, %27 ]
  call void @llvm.lifetime.end.p0(i64 8, ptr nonnull %5) #6
  br label %38

38:                                               ; preds = %.sink.split, %6, %4
  %.0 = phi i32 [ 3, %4 ], [ %7, %6 ], [ %.0.ph, %.sink.split ]
  ret i32 %.0
}